target datalayout = "e-m:e-p270:32:32-p271:32:32-p272:64:64-i64:64-i128:128-f80:128-n8:16:32:64-S128"
target triple = "x86_64-unknown-linux-gnu"

%class.aiColor4t = type { float, float, float, float }
%struct.aiTexture = type <{ i32, i32, [9 x i8], [7 x i8], ptr, %struct.aiString, [4 x i8] }>
%struct.aiString = type { i32, [1024 x i8] }
%struct.aiTexel = type { i8, i8, i8, i8 }

; Function Attrs: mustprogress nounwind uwtable
define linkonce_odr noundef float @_ZNSt14numeric_limitsIfE9quiet_NaNEv() #0 comdat align 2 {
entry:
  ret float 0x7FF8000000000000
}

; Function Attrs: mustprogress nounwind uwtable
define linkonce_odr hidden noundef zeroext i1 @_ZNK7aiTexelneERKS_(ptr noundef nonnull align 1 dereferenceable(4) %this, ptr noundef nonnull align 1 dereferenceable(4) %other) #0 comdat align 2 {
entry:
  %this.addr = alloca ptr, align 8
  %other.addr = alloca ptr, align 8
  store ptr %this, ptr %this.addr, align 8
  store ptr %other, ptr %other.addr, align 8
  %this1 = load ptr, ptr %this.addr, align 8
  %b = getelementptr inbounds %struct.aiTexel, ptr %this1, i32 0, i32 0
  %0 = load i8, ptr %b, align 1
  %conv = zext i8 %0 to i32
  %1 = load ptr, ptr %other.addr, align 8
  %b2 = getelementptr inbounds %struct.aiTexel, ptr %1, i32 0, i32 0
  %2 = load i8, ptr %b2, align 1
  %conv3 = zext i8 %2 to i32
  %cmp = icmp ne i32 %conv, %conv3
  br i1 %cmp, label %lor.end, label %lor.lhs.false

lor.lhs.false:                                    ; preds = %entry
  %r = getelementptr inbounds %struct.aiTexel, ptr %this1, i32 0, i32 2
  %3 = load i8, ptr %r, align 1
  %conv4 = zext i8 %3 to i32
  %4 = load ptr, ptr %other.addr, align 8
  %r5 = getelementptr inbounds %struct.aiTexel, ptr %4, i32 0, i32 2
  %5 = load i8, ptr %r5, align 1
  %conv6 = zext i8 %5 to i32
  %cmp7 = icmp ne i32 %conv4, %conv6
  br i1 %cmp7, label %lor.end, label %lor.lhs.false8

lor.lhs.false8:                                   ; preds = %lor.lhs.false
  %g = getelementptr inbounds %struct.aiTexel, ptr %this1, i32 0, i32 1
  %6 = load i8, ptr %g, align 1
  %conv9 = zext i8 %6 to i32
  %7 = load ptr, ptr %other.addr, align 8
  %g10 = getelementptr inbounds %struct.aiTexel, ptr %7, i32 0, i32 1
  %8 = load i8, ptr %g10, align 1
  %conv11 = zext i8 %8 to i32
  %cmp12 = icmp ne i32 %conv9, %conv11
  br i1 %cmp12, label %lor.end, label %lor.rhs

lor.rhs:                                          ; preds = %lor.lhs.false8
  %a = getelementptr inbounds %struct.aiTexel, ptr %this1, i32 0, i32 3
  %9 = load i8, ptr %a, align 1
  %conv13 = zext i8 %9 to i32
  %10 = load ptr, ptr %other.addr, align 8
  %a14 = getelementptr inbounds %struct.aiTexel, ptr %10, i32 0, i32 3
  %11 = load i8, ptr %a14, align 1
  %conv15 = zext i8 %11 to i32
  %cmp16 = icmp ne i32 %conv13, %conv15
  br label %lor.end

lor.end:                                          ; preds = %lor.rhs, %lor.lhs.false8, %lor.lhs.false, %entry
  %12 = phi i1 [ true, %lor.lhs.false8 ], [ true, %lor.lhs.false ], [ true, %entry ], [ %cmp16, %lor.rhs ]
  ret i1 %12
}

; Function Attrs: mustprogress nounwind uwtable
define linkonce_odr hidden noundef float @_Z8get_qnanv() #0 comdat {
entry:
  %call = call noundef float @_ZNSt14numeric_limitsIfE9quiet_NaNEv() #15
  ret float %call
}

; Function Attrs: mustprogress nounwind uwtable
define linkonce_odr hidden void @_ZN9aiColor4tIfEC2Ev(ptr noundef nonnull align 4 dereferenceable(16) %this) unnamed_addr #0 comdat align 2 {
entry:
  %this.addr = alloca ptr, align 8
  store ptr %this, ptr %this.addr, align 8
  %this1 = load ptr, ptr %this.addr, align 8
  %r = getelementptr inbounds %class.aiColor4t, ptr %this1, i32 0, i32 0
  store float 0.000000e+00, ptr %r, align 4
  %g = getelementptr inbounds %class.aiColor4t, ptr %this1, i32 0, i32 1
  store float 0.000000e+00, ptr %g, align 4
  %b = getelementptr inbounds %class.aiColor4t, ptr %this1, i32 0, i32 2
  store float 0.000000e+00, ptr %b, align 4
  %a = getelementptr inbounds %class.aiColor4t, ptr %this1, i32 0, i32 3
  store float 0.000000e+00, ptr %a, align 4
  ret void
}

; Function Attrs: mustprogress uwtable
define hidden { <2 x float>, <2 x float> } @_ZN6Assimp11MDLImporter23ReplaceTextureWithColorEPK9aiTexture(ptr noundef nonnull align 8 dereferenceable(158) %this, ptr noundef %pcTexture) #2 align 2 {
entry:
  %retval = alloca %class.aiColor4t, align 4
  %this.addr = alloca ptr, align 8
  %pcTexture.addr = alloca ptr, align 8
  %iNumPixels = alloca i32, align 4
  %pcTexel = alloca ptr, align 8
  %pcTexelEnd = alloca ptr, align 8
  store ptr %this, ptr %this.addr, align 8
  store ptr %pcTexture, ptr %pcTexture.addr, align 8
  call void @_ZN9aiColor4tIfEC2Ev(ptr noundef nonnull align 4 dereferenceable(16) %retval) #15
  %call = call noundef float @_Z8get_qnanv()
  %r = getelementptr inbounds %class.aiColor4t, ptr %retval, i32 0, i32 0
  store float %call, ptr %r, align 4
  %0 = load ptr, ptr %pcTexture.addr, align 8
  %mHeight = getelementptr inbounds %struct.aiTexture, ptr %0, i32 0, i32 1
  %1 = load i32, ptr %mHeight, align 4
  %tobool = icmp ne i32 %1, 0
  br i1 %tobool, label %lor.lhs.false, label %if.then

lor.lhs.false:                                    ; preds = %entry
  %2 = load ptr, ptr %pcTexture.addr, align 8
  %mWidth = getelementptr inbounds %struct.aiTexture, ptr %2, i32 0, i32 0
  %3 = load i32, ptr %mWidth, align 8
  %tobool2 = icmp ne i32 %3, 0
  br i1 %tobool2, label %if.end, label %if.then

if.then:                                          ; preds = %lor.lhs.false, %entry
  br label %return

if.end:                                           ; preds = %lor.lhs.false
  %4 = load ptr, ptr %pcTexture.addr, align 8
  %mHeight3 = getelementptr inbounds %struct.aiTexture, ptr %4, i32 0, i32 1
  %5 = load i32, ptr %mHeight3, align 4
  %6 = load ptr, ptr %pcTexture.addr, align 8
  %mWidth4 = getelementptr inbounds %struct.aiTexture, ptr %6, i32 0, i32 0
  %7 = load i32, ptr %mWidth4, align 8
  %mul = mul i32 %5, %7
  store i32 %mul, ptr %iNumPixels, align 4
  %8 = load ptr, ptr %pcTexture.addr, align 8
  %pcData = getelementptr inbounds %struct.aiTexture, ptr %8, i32 0, i32 4
  %9 = load ptr, ptr %pcData, align 8
  %add.ptr = getelementptr inbounds %struct.aiTexel, ptr %9, i64 1
  store ptr %add.ptr, ptr %pcTexel, align 8
  %10 = load ptr, ptr %pcTexture.addr, align 8
  %pcData5 = getelementptr inbounds %struct.aiTexture, ptr %10, i32 0, i32 4
  %11 = load ptr, ptr %pcData5, align 8
  %12 = load i32, ptr %iNumPixels, align 4
  %idxprom = zext i32 %12 to i64
  %arrayidx = getelementptr inbounds %struct.aiTexel, ptr %11, i64 %idxprom
  store ptr %arrayidx, ptr %pcTexelEnd, align 8
  br label %while.cond

while.cond:                                       ; preds = %if.end9, %if.end
  %13 = load ptr, ptr %pcTexel, align 8
  %14 = load ptr, ptr %pcTexelEnd, align 8
  %cmp = icmp ne ptr %13, %14
  br i1 %cmp, label %while.body, label %while.end

while.body:                                       ; preds = %while.cond
  %15 = load ptr, ptr %pcTexel, align 8
  %16 = load ptr, ptr %pcTexel, align 8
  %add.ptr6 = getelementptr inbounds %struct.aiTexel, ptr %16, i64 -1
  %call7 = call noundef zeroext i1 @_ZNK7aiTexelneERKS_(ptr noundef nonnull align 1 dereferenceable(4) %15, ptr noundef nonnull align 1 dereferenceable(4) %add.ptr6)
  br i1 %call7, label %if.then8, label %if.end9

if.then8:                                         ; preds = %while.body
  store ptr null, ptr %pcTexel, align 8
  br label %while.end

if.end9:                                          ; preds = %while.body
  %17 = load ptr, ptr %pcTexel, align 8
  %incdec.ptr = getelementptr inbounds %struct.aiTexel, ptr %17, i32 1
  store ptr %incdec.ptr, ptr %pcTexel, align 8
  br label %while.cond, !llvm.loop !4

while.end:                                        ; preds = %if.then8, %while.cond
  %18 = load ptr, ptr %pcTexel, align 8
  %tobool10 = icmp ne ptr %18, null
  br i1 %tobool10, label %if.then11, label %if.end31

if.then11:                                        ; preds = %while.end
  %19 = load ptr, ptr %pcTexture.addr, align 8
  %pcData12 = getelementptr inbounds %struct.aiTexture, ptr %19, i32 0, i32 4
  %20 = load ptr, ptr %pcData12, align 8
  %r13 = getelementptr inbounds %struct.aiTexel, ptr %20, i32 0, i32 2
  %21 = load i8, ptr %r13, align 1
  %conv = zext i8 %21 to i32
  %conv14 = sitofp i32 %conv to float
  %div = fdiv float %conv14, 2.550000e+02
  %r15 = getelementptr inbounds %class.aiColor4t, ptr %retval, i32 0, i32 0
  store float %div, ptr %r15, align 4
  %22 = load ptr, ptr %pcTexture.addr, align 8
  %pcData16 = getelementptr inbounds %struct.aiTexture, ptr %22, i32 0, i32 4
  %23 = load ptr, ptr %pcData16, align 8
  %g = getelementptr inbounds %struct.aiTexel, ptr %23, i32 0, i32 1
  %24 = load i8, ptr %g, align 1
  %conv17 = zext i8 %24 to i32
  %conv18 = sitofp i32 %conv17 to float
  %div19 = fdiv float %conv18, 2.550000e+02
  %g20 = getelementptr inbounds %class.aiColor4t, ptr %retval, i32 0, i32 1
  store float %div19, ptr %g20, align 4
  %25 = load ptr, ptr %pcTexture.addr, align 8
  %pcData21 = getelementptr inbounds %struct.aiTexture, ptr %25, i32 0, i32 4
  %26 = load ptr, ptr %pcData21, align 8
  %b = getelementptr inbounds %struct.aiTexel, ptr %26, i32 0, i32 0
  %27 = load i8, ptr %b, align 1
  %conv22 = zext i8 %27 to i32
  %conv23 = sitofp i32 %conv22 to float
  %div24 = fdiv float %conv23, 2.550000e+02
  %b25 = getelementptr inbounds %class.aiColor4t, ptr %retval, i32 0, i32 2
  store float %div24, ptr %b25, align 4
  %28 = load ptr, ptr %pcTexture.addr, align 8
  %pcData26 = getelementptr inbounds %struct.aiTexture, ptr %28, i32 0, i32 4
  %29 = load ptr, ptr %pcData26, align 8
  %a = getelementptr inbounds %struct.aiTexel, ptr %29, i32 0, i32 3
  %30 = load i8, ptr %a, align 1
  %conv27 = zext i8 %30 to i32
  %conv28 = sitofp i32 %conv27 to float
  %div29 = fdiv float %conv28, 2.550000e+02
  %a30 = getelementptr inbounds %class.aiColor4t, ptr %retval, i32 0, i32 3
  store float %div29, ptr %a30, align 4
  br label %if.end31

if.end31:                                         ; preds = %if.then11, %while.end
  br label %return

return:                                           ; preds = %if.end31, %if.then
  %31 = load { <2 x float>, <2 x float> }, ptr %retval, align 4
  ret { <2 x float>, <2 x float> } %31
}