; Function Attrs: mustprogress nofree norecurse nosync nounwind willreturn memory(read, inaccessiblemem: none) uwtable
define hidden { <2 x float>, <2 x float> } @_ZN6Assimp11MDLImporter23ReplaceTextureWithColorEPK9aiTexture(ptr nocapture noundef nonnull readnone align 8 dereferenceable(158) %this, ptr nocapture noundef readonly %pcTexture) local_unnamed_addr #6 align 2 {
entry:
  %mHeight = getelementptr inbounds i8, ptr %pcTexture, i64 4
  %0 = load i32, ptr %mHeight, align 4
  %tobool.not = icmp eq i32 %0, 0
  br i1 %tobool.not, label %return, label %lor.lhs.false

lor.lhs.false:                                    ; preds = %entry
  %1 = load i32, ptr %pcTexture, align 8
  %tobool2.not = icmp eq i32 %1, 0
  br i1 %tobool2.not, label %return, label %if.end

if.end:                                           ; preds = %lor.lhs.false
  %mul = mul i32 %1, %0
  %pcData = getelementptr inbounds i8, ptr %pcTexture, i64 24
  %2 = load ptr, ptr %pcData, align 8
  %idxprom = zext i32 %mul to i64
  %arrayidx = getelementptr inbounds %struct.aiTexel, ptr %2, i64 %idxprom
  br label %while.cond

while.cond:                                       ; preds = %_ZNK7aiTexelneERKS_.exit, %if.end
  %.pn = phi ptr [ %2, %if.end ], [ %pcTexel.0, %_ZNK7aiTexelneERKS_.exit ]
  %pcTexel.0 = getelementptr inbounds i8, ptr %.pn, i64 4
  %cmp.not.not = icmp eq ptr %pcTexel.0, %arrayidx
  br i1 %cmp.not.not, label %if.then11, label %while.body

while.body:                                       ; preds = %while.cond
  %3 = load i8, ptr %pcTexel.0, align 1
  %4 = load i8, ptr %.pn, align 1
  %cmp.not.i = icmp eq i8 %3, %4
  br i1 %cmp.not.i, label %lor.lhs.false.i, label %return

lor.lhs.false.i:                                  ; preds = %while.body
  %r.i = getelementptr inbounds i8, ptr %.pn, i64 6
  %5 = load i8, ptr %r.i, align 1
  %r5.i = getelementptr inbounds i8, ptr %.pn, i64 2
  %6 = load i8, ptr %r5.i, align 1
  %cmp7.not.i = icmp eq i8 %5, %6
  br i1 %cmp7.not.i, label %lor.lhs.false8.i, label %return

lor.lhs.false8.i:                                 ; preds = %lor.lhs.false.i
  %g.i = getelementptr inbounds i8, ptr %.pn, i64 5
  %7 = load i8, ptr %g.i, align 1
  %g10.i = getelementptr inbounds i8, ptr %.pn, i64 1
  %8 = load i8, ptr %g10.i, align 1
  %cmp12.not.i = icmp eq i8 %7, %8
  br i1 %cmp12.not.i, label %_ZNK7aiTexelneERKS_.exit, label %return

_ZNK7aiTexelneERKS_.exit:                         ; preds = %lor.lhs.false8.i
  %a.i = getelementptr inbounds i8, ptr %.pn, i64 7
  %9 = load i8, ptr %a.i, align 1
  %a14.i = getelementptr inbounds i8, ptr %.pn, i64 3
  %10 = load i8, ptr %a14.i, align 1
  %cmp16.i.not = icmp eq i8 %9, %10
  br i1 %cmp16.i.not, label %while.cond, label %return, !llvm.loop !4

if.then11:                                        ; preds = %while.cond
  %g = getelementptr inbounds i8, ptr %2, i64 1
  %11 = load <2 x i8>, ptr %g, align 1
  %12 = uitofp <2 x i8> %11 to <2 x float>
  %13 = fdiv <2 x float> %12, <float 2.550000e+02, float 2.550000e+02>
  %14 = shufflevector <2 x float> %13, <2 x float> poison, <2 x i32> <i32 1, i32 0>
  %15 = load i8, ptr %2, align 1
  %a = getelementptr inbounds i8, ptr %2, i64 3
  %16 = load i8, ptr %a, align 1
  %17 = insertelement <2 x i8> poison, i8 %15, i64 0
  %18 = insertelement <2 x i8> %17, i8 %16, i64 1
  %19 = uitofp <2 x i8> %18 to <2 x float>
  %20 = fdiv <2 x float> %19, <float 2.550000e+02, float 2.550000e+02>
  br label %return

return:                                           ; preds = %while.body, %lor.lhs.false.i, %lor.lhs.false8.i, %_ZNK7aiTexelneERKS_.exit, %if.then11, %entry, %lor.lhs.false
  %retval.sroa.5.0 = phi <2 x float> [ zeroinitializer, %entry ], [ zeroinitializer, %lor.lhs.false ], [ %20, %if.then11 ], [ zeroinitializer, %_ZNK7aiTexelneERKS_.exit ], [ zeroinitializer, %lor.lhs.false8.i ], [ zeroinitializer, %lor.lhs.false.i ], [ zeroinitializer, %while.body ]
  %retval.sroa.0.0 = phi <2 x float> [ <float 0x7FF8000000000000, float 0.000000e+00>, %entry ], [ <float 0x7FF8000000000000, float 0.000000e+00>, %lor.lhs.false ], [ %14, %if.then11 ], [ <float 0x7FF8000000000000, float 0.000000e+00>, %_ZNK7aiTexelneERKS_.exit ], [ <float 0x7FF8000000000000, float 0.000000e+00>, %lor.lhs.false8.i ], [ <float 0x7FF8000000000000, float 0.000000e+00>, %lor.lhs.false.i ], [ <float 0x7FF8000000000000, float 0.000000e+00>, %while.body ]
  %.fca.0.insert = insertvalue { <2 x float>, <2 x float> } poison, <2 x float> %retval.sroa.0.0, 0
  %.fca.1.insert = insertvalue { <2 x float>, <2 x float> } %.fca.0.insert, <2 x float> %retval.sroa.5.0, 1
  ret { <2 x float>, <2 x float> } %.fca.1.insert
}